; Function Attrs: mustprogress uwtable
define noundef zeroext i1 @_ZN32pxrInternal_v0_24__pxrReserved__10GfMatrix3f14OrthonormalizeEb(ptr nocapture noundef nonnull align 4 dereferenceable(36) %0, i1 noundef zeroext %1) local_unnamed_addr #0 align 2 {
  %3 = alloca %"class.pxrInternal_v0_24__pxrReserved__::GfVec3d", align 8
  %4 = alloca %"class.pxrInternal_v0_24__pxrReserved__::GfVec3d", align 8
  %5 = alloca %"class.pxrInternal_v0_24__pxrReserved__::GfVec3d", align 8
  %6 = alloca %"class.pxrInternal_v0_24__pxrReserved__::TfCallContext", align 8
  %7 = load float, ptr %0, align 4
  %8 = fpext float %7 to double
  %9 = getelementptr inbounds i8, ptr %0, i64 4
  %10 = load float, ptr %9, align 4
  %11 = fpext float %10 to double
  %12 = getelementptr inbounds i8, ptr %0, i64 8
  %13 = load float, ptr %12, align 4
  %14 = fpext float %13 to double
  store double %8, ptr %3, align 8
  %15 = getelementptr inbounds i8, ptr %3, i64 8
  store double %11, ptr %15, align 8
  %16 = getelementptr inbounds i8, ptr %3, i64 16
  store double %14, ptr %16, align 8
  %17 = getelementptr inbounds i8, ptr %0, i64 12
  %18 = load float, ptr %17, align 4
  %19 = fpext float %18 to double
  %20 = getelementptr inbounds i8, ptr %0, i64 16
  %21 = load float, ptr %20, align 4
  %22 = fpext float %21 to double
  %23 = getelementptr inbounds i8, ptr %0, i64 20
  %24 = load float, ptr %23, align 4
  %25 = fpext float %24 to double
  store double %19, ptr %4, align 8
  %26 = getelementptr inbounds i8, ptr %4, i64 8
  store double %22, ptr %26, align 8
  %27 = getelementptr inbounds i8, ptr %4, i64 16
  store double %25, ptr %27, align 8
  %28 = getelementptr inbounds i8, ptr %0, i64 24
  %29 = load float, ptr %28, align 4
  %30 = fpext float %29 to double
  %31 = getelementptr inbounds i8, ptr %0, i64 28
  %32 = load float, ptr %31, align 4
  %33 = fpext float %32 to double
  %34 = getelementptr inbounds i8, ptr %0, i64 32
  %35 = load float, ptr %34, align 4
  %36 = fpext float %35 to double
  store double %30, ptr %5, align 8
  %37 = getelementptr inbounds i8, ptr %5, i64 8
  store double %33, ptr %37, align 8
  %38 = getelementptr inbounds i8, ptr %5, i64 16
  store double %36, ptr %38, align 8
  %39 = call noundef zeroext i1 @_ZN32pxrInternal_v0_24__pxrReserved__7GfVec3d18OrthogonalizeBasisEPS0_S1_S1_bd(ptr noundef nonnull %3, ptr noundef nonnull %4, ptr noundef nonnull %5, i1 noundef zeroext true, double noundef 0x3EB0C6F7A0B5ED8D)
  %40 = load double, ptr %3, align 8
  %41 = fptrunc double %40 to float
  store float %41, ptr %0, align 4
  %42 = load double, ptr %15, align 8
  %43 = fptrunc double %42 to float
  store float %43, ptr %9, align 4
  %44 = load double, ptr %16, align 8
  %45 = fptrunc double %44 to float
  store float %45, ptr %12, align 4
  %46 = load double, ptr %4, align 8
  %47 = fptrunc double %46 to float
  store float %47, ptr %17, align 4
  %48 = load double, ptr %26, align 8
  %49 = fptrunc double %48 to float
  store float %49, ptr %20, align 4
  %50 = load double, ptr %27, align 8
  %51 = fptrunc double %50 to float
  store float %51, ptr %23, align 4
  %52 = load double, ptr %5, align 8
  %53 = fptrunc double %52 to float
  store float %53, ptr %28, align 4
  %54 = load double, ptr %37, align 8
  %55 = fptrunc double %54 to float
  store float %55, ptr %31, align 4
  %56 = load double, ptr %38, align 8
  %57 = fptrunc double %56 to float
  store float %57, ptr %34, align 4
  %.not = xor i1 %1, true
  %brmerge = or i1 %39, %.not
  br i1 %brmerge, label %63, label %58

58:                                               ; preds = %2
  store ptr @.str.6, ptr %6, align 8
  %59 = getelementptr inbounds nuw i8, ptr %6, i64 8
  store ptr @__func__._ZN32pxrInternal_v0_24__pxrReserved__10GfMatrix3f14OrthonormalizeEb, ptr %59, align 8
  %60 = getelementptr inbounds nuw i8, ptr %6, i64 16
  store i64 265, ptr %60, align 8
  %61 = getelementptr inbounds nuw i8, ptr %6, i64 24
  store ptr @__PRETTY_FUNCTION__._ZN32pxrInternal_v0_24__pxrReserved__10GfMatrix3f14OrthonormalizeEb, ptr %61, align 8
  %62 = getelementptr inbounds nuw i8, ptr %6, i64 32
  store i8 0, ptr %62, align 8
  call void (ptr, ptr, ...) @_ZN32pxrInternal_v0_24__pxrReserved__20Tf_PostWarningHelperERKNS_13TfCallContextEPKcz(ptr noundef nonnull align 8 dereferenceable(33) %6, ptr noundef nonnull @.str.7)
  br label %63

63:                                               ; preds = %2, %58
  ret i1 %39
}